target datalayout = "e-m:e-p270:32:32-p271:32:32-p272:64:64-i64:64-i128:128-f80:128-n8:16:32:64-S128"
target triple = "x86_64-pc-linux-gnu"

%struct.OSQPCscMatrix = type { i64, i64, ptr, ptr, ptr, i64, i64 }

; Function Attrs: nounwind uwtable
define void @vec_set_scalar(ptr noundef %0, double noundef %1, i64 noundef %2) #0 {
  %4 = alloca ptr, align 8
  %5 = alloca double, align 8
  %6 = alloca i64, align 8
  %7 = alloca i64, align 8
  store ptr %0, ptr %4, align 8, !tbaa !3
  store double %1, ptr %5, align 8, !tbaa !8
  store i64 %2, ptr %6, align 8, !tbaa !10
  call void @llvm.lifetime.start.p0(i64 8, ptr %7) #3
  store i64 0, ptr %7, align 8, !tbaa !10
  br label %8

8:                                                ; preds = %17, %3
  %9 = load i64, ptr %7, align 8, !tbaa !10
  %10 = load i64, ptr %6, align 8, !tbaa !10
  %11 = icmp slt i64 %9, %10
  br i1 %11, label %12, label %20

12:                                               ; preds = %8
  %13 = load double, ptr %5, align 8, !tbaa !8
  %14 = load ptr, ptr %4, align 8, !tbaa !3
  %15 = load i64, ptr %7, align 8, !tbaa !10
  %16 = getelementptr inbounds double, ptr %14, i64 %15
  store double %13, ptr %16, align 8, !tbaa !8
  br label %17

17:                                               ; preds = %12
  %18 = load i64, ptr %7, align 8, !tbaa !10
  %19 = add nsw i64 %18, 1
  store i64 %19, ptr %7, align 8, !tbaa !10
  br label %8, !llvm.loop !12

20:                                               ; preds = %8
  call void @llvm.lifetime.end.p0(i64 8, ptr %7) #3
  ret void
}

; Function Attrs: nounwind uwtable
define void @csc_col_norm_inf(ptr noundef %0, ptr noundef %1) #0 {
  %3 = alloca ptr, align 8
  %4 = alloca ptr, align 8
  %5 = alloca i64, align 8
  %6 = alloca i64, align 8
  %7 = alloca ptr, align 8
  %8 = alloca i64, align 8
  %9 = alloca ptr, align 8
  store ptr %0, ptr %3, align 8, !tbaa !16
  store ptr %1, ptr %4, align 8, !tbaa !3
  call void @llvm.lifetime.start.p0(i64 8, ptr %5) #3
  call void @llvm.lifetime.start.p0(i64 8, ptr %6) #3
  call void @llvm.lifetime.start.p0(i64 8, ptr %7) #3
  %10 = load ptr, ptr %3, align 8, !tbaa !16
  %11 = getelementptr inbounds nuw %struct.OSQPCscMatrix, ptr %10, i32 0, i32 2
  %12 = load ptr, ptr %11, align 8, !tbaa !23
  store ptr %12, ptr %7, align 8, !tbaa !17
  call void @llvm.lifetime.start.p0(i64 8, ptr %8) #3
  %13 = load ptr, ptr %3, align 8, !tbaa !16
  %14 = getelementptr inbounds nuw %struct.OSQPCscMatrix, ptr %13, i32 0, i32 1
  %15 = load i64, ptr %14, align 8, !tbaa !24
  store i64 %15, ptr %8, align 8, !tbaa !10
  call void @llvm.lifetime.start.p0(i64 8, ptr %9) #3
  %16 = load ptr, ptr %3, align 8, !tbaa !16
  %17 = getelementptr inbounds nuw %struct.OSQPCscMatrix, ptr %16, i32 0, i32 4
  %18 = load ptr, ptr %17, align 8, !tbaa !19
  store ptr %18, ptr %9, align 8, !tbaa !3
  %19 = load ptr, ptr %4, align 8, !tbaa !3
  %20 = load i64, ptr %8, align 8, !tbaa !10
  call void @vec_set_scalar(ptr noundef %19, double noundef 0.000000e+00, i64 noundef %20)
  store i64 0, ptr %5, align 8, !tbaa !10
  br label %21

21:                                               ; preds = %95, %2
  %22 = load i64, ptr %5, align 8, !tbaa !10
  %23 = load i64, ptr %8, align 8, !tbaa !10
  %24 = icmp slt i64 %22, %23
  br i1 %24, label %25, label %98

25:                                               ; preds = %21
  %26 = load ptr, ptr %7, align 8, !tbaa !17
  %27 = load i64, ptr %5, align 8, !tbaa !10
  %28 = getelementptr inbounds i64, ptr %26, i64 %27
  %29 = load i64, ptr %28, align 8, !tbaa !10
  store i64 %29, ptr %6, align 8, !tbaa !10
  br label %30

30:                                               ; preds = %91, %25
  %31 = load i64, ptr %6, align 8, !tbaa !10
  %32 = load ptr, ptr %7, align 8, !tbaa !17
  %33 = load i64, ptr %5, align 8, !tbaa !10
  %34 = add nsw i64 %33, 1
  %35 = getelementptr inbounds i64, ptr %32, i64 %34
  %36 = load i64, ptr %35, align 8, !tbaa !10
  %37 = icmp slt i64 %31, %36
  br i1 %37, label %38, label %94

38:                                               ; preds = %30
  %39 = load ptr, ptr %9, align 8, !tbaa !3
  %40 = load i64, ptr %6, align 8, !tbaa !10
  %41 = getelementptr inbounds double, ptr %39, i64 %40
  %42 = load double, ptr %41, align 8, !tbaa !8
  %43 = fcmp olt double %42, 0.000000e+00
  br i1 %43, label %44, label %50

44:                                               ; preds = %38
  %45 = load ptr, ptr %9, align 8, !tbaa !3
  %46 = load i64, ptr %6, align 8, !tbaa !10
  %47 = getelementptr inbounds double, ptr %45, i64 %46
  %48 = load double, ptr %47, align 8, !tbaa !8
  %49 = fneg double %48
  br label %55

50:                                               ; preds = %38
  %51 = load ptr, ptr %9, align 8, !tbaa !3
  %52 = load i64, ptr %6, align 8, !tbaa !10
  %53 = getelementptr inbounds double, ptr %51, i64 %52
  %54 = load double, ptr %53, align 8, !tbaa !8
  br label %55

55:                                               ; preds = %50, %44
  %56 = phi double [ %49, %44 ], [ %54, %50 ]
  %57 = load ptr, ptr %4, align 8, !tbaa !3
  %58 = load i64, ptr %5, align 8, !tbaa !10
  %59 = getelementptr inbounds double, ptr %57, i64 %58
  %60 = load double, ptr %59, align 8, !tbaa !8
  %61 = fcmp ogt double %56, %60
  br i1 %61, label %62, label %81

62:                                               ; preds = %55
  %63 = load ptr, ptr %9, align 8, !tbaa !3
  %64 = load i64, ptr %6, align 8, !tbaa !10
  %65 = getelementptr inbounds double, ptr %63, i64 %64
  %66 = load double, ptr %65, align 8, !tbaa !8
  %67 = fcmp olt double %66, 0.000000e+00
  br i1 %67, label %68, label %74

68:                                               ; preds = %62
  %69 = load ptr, ptr %9, align 8, !tbaa !3
  %70 = load i64, ptr %6, align 8, !tbaa !10
  %71 = getelementptr inbounds double, ptr %69, i64 %70
  %72 = load double, ptr %71, align 8, !tbaa !8
  %73 = fneg double %72
  br label %79

74:                                               ; preds = %62
  %75 = load ptr, ptr %9, align 8, !tbaa !3
  %76 = load i64, ptr %6, align 8, !tbaa !10
  %77 = getelementptr inbounds double, ptr %75, i64 %76
  %78 = load double, ptr %77, align 8, !tbaa !8
  br label %79

79:                                               ; preds = %74, %68
  %80 = phi double [ %73, %68 ], [ %78, %74 ]
  br label %86

81:                                               ; preds = %55
  %82 = load ptr, ptr %4, align 8, !tbaa !3
  %83 = load i64, ptr %5, align 8, !tbaa !10
  %84 = getelementptr inbounds double, ptr %82, i64 %83
  %85 = load double, ptr %84, align 8, !tbaa !8
  br label %86

86:                                               ; preds = %81, %79
  %87 = phi double [ %80, %79 ], [ %85, %81 ]
  %88 = load ptr, ptr %4, align 8, !tbaa !3
  %89 = load i64, ptr %5, align 8, !tbaa !10
  %90 = getelementptr inbounds double, ptr %88, i64 %89
  store double %87, ptr %90, align 8, !tbaa !8
  br label %91

91:                                               ; preds = %86
  %92 = load i64, ptr %6, align 8, !tbaa !10
  %93 = add nsw i64 %92, 1
  store i64 %93, ptr %6, align 8, !tbaa !10
  br label %30, !llvm.loop !52

94:                                               ; preds = %30
  br label %95

95:                                               ; preds = %94
  %96 = load i64, ptr %5, align 8, !tbaa !10
  %97 = add nsw i64 %96, 1
  store i64 %97, ptr %5, align 8, !tbaa !10
  br label %21, !llvm.loop !53

98:                                               ; preds = %21
  call void @llvm.lifetime.end.p0(i64 8, ptr %9) #3
  call void @llvm.lifetime.end.p0(i64 8, ptr %8) #3
  call void @llvm.lifetime.end.p0(i64 8, ptr %7) #3
  call void @llvm.lifetime.end.p0(i64 8, ptr %6) #3
  call void @llvm.lifetime.end.p0(i64 8, ptr %5) #3
  ret void
}