; Function Attrs: nofree norecurse nosync nounwind memory(read, argmem: readwrite, inaccessiblemem: none) uwtable
define void @csc_col_norm_inf(ptr noundef readonly captures(none) %0, ptr noundef captures(none) %1) local_unnamed_addr #4 {
  %3 = getelementptr inbounds nuw i8, ptr %0, i64 16
  %4 = load ptr, ptr %3, align 8, !tbaa !20
  %5 = getelementptr inbounds nuw i8, ptr %0, i64 8
  %6 = load i64, ptr %5, align 8, !tbaa !21
  %7 = getelementptr inbounds nuw i8, ptr %0, i64 32
  %8 = load ptr, ptr %7, align 8, !tbaa !11
  %9 = icmp sgt i64 %6, 0
  br i1 %9, label %.lr.ph39.preheader, label %._crit_edge

.lr.ph39.preheader:                               ; preds = %2
  %10 = shl nuw i64 %6, 3
  tail call void @llvm.memset.p0.i64(ptr align 8 %1, i8 0, i64 %10, i1 false), !tbaa !3
  %.pre = load i64, ptr %4, align 8, !tbaa !17
  br label %.lr.ph39

.loopexit:                                        ; preds = %17, %.lr.ph39
  %exitcond40.not = icmp eq i64 %12, %6
  br i1 %exitcond40.not, label %._crit_edge, label %.lr.ph39, !llvm.loop !49

.lr.ph39:                                         ; preds = %.lr.ph39.preheader, %.loopexit
  %11 = phi i64 [ %14, %.loopexit ], [ %.pre, %.lr.ph39.preheader ]
  %.038 = phi i64 [ %12, %.loopexit ], [ 0, %.lr.ph39.preheader ]
  %12 = add nuw nsw i64 %.038, 1
  %13 = getelementptr inbounds nuw i64, ptr %4, i64 %12
  %14 = load i64, ptr %13, align 8, !tbaa !17
  %15 = icmp slt i64 %11, %14
  br i1 %15, label %.lr.ph, label %.loopexit

.lr.ph:                                           ; preds = %.lr.ph39
  %16 = getelementptr inbounds nuw double, ptr %1, i64 %.038
  %.promoted = load double, ptr %16, align 8, !tbaa !3
  br label %17

17:                                               ; preds = %.lr.ph, %17
  %18 = phi double [ %.promoted, %.lr.ph ], [ %24, %17 ]
  %.03137 = phi i64 [ %11, %.lr.ph ], [ %25, %17 ]
  %19 = getelementptr inbounds double, ptr %8, i64 %.03137
  %20 = load double, ptr %19, align 8, !tbaa !3
  %21 = fcmp uge double %20, 0.000000e+00
  %22 = fneg double %20
  %23 = select i1 %21, double %20, double %22
  %.inv = fcmp ogt double %23, %18
  %24 = select i1 %.inv, double %23, double %18
  store double %24, ptr %16, align 8, !tbaa !3
  %25 = add nsw i64 %.03137, 1
  %exitcond.not = icmp eq i64 %25, %14
  br i1 %exitcond.not, label %.loopexit, label %17, !llvm.loop !50

._crit_edge:                                      ; preds = %.loopexit, %2
  ret void
}